; Function Attrs: nounwind memory(read, argmem: readwrite, inaccessiblemem: none) uwtable
define internal range(i32 0, 2) i32 @poly_decode_signed_two_to_power_19(ptr noundef writeonly captures(none) %0, ptr noundef captures(none) %1) unnamed_addr #4 {
  %3 = getelementptr i8, ptr %1, i64 8
  %.promoted = load i64, ptr %3, align 8, !tbaa !50
  br label %4

4:                                                ; preds = %2, %7
  %5 = phi i64 [ %.promoted, %2 ], [ %10, %7 ]
  %.01036 = phi ptr [ %0, %2 ], [ %57, %7 ]
  %.01235 = phi i32 [ 0, %2 ], [ %58, %7 ]
  %6 = icmp ult i64 %5, 10
  br i1 %6, label %59, label %7

7:                                                ; preds = %4
  %8 = load ptr, ptr %1, align 8, !tbaa !48
  %9 = getelementptr inbounds nuw i8, ptr %8, i64 10
  store ptr %9, ptr %1, align 8, !tbaa !48
  %10 = add i64 %5, -10
  store i64 %10, ptr %3, align 8, !tbaa !50
  %.0.copyload.i = load i32, ptr %8, align 1
  %11 = getelementptr inbounds nuw i8, ptr %8, i64 4
  %.0.copyload.i14 = load i32, ptr %11, align 1
  %12 = getelementptr inbounds nuw i8, ptr %8, i64 8
  %.0.copyload.i15 = load i16, ptr %12, align 1
  %13 = and i32 %.0.copyload.i, 1048575
  %14 = sub nuw nsw i32 8904705, %13
  %15 = sub nsw i32 524288, %13
  %.neg.i.i.i.i = ashr i32 %15, 31
  %16 = tail call i32 asm "", "=r,0,~{dirflag},~{fpsr},~{flags}"(i32 range(i32 -1, 1) %.neg.i.i.i.i) #10, !srcloc !42
  %17 = and i32 %16, %14
  %18 = xor i32 %.neg.i.i.i.i, -1
  %19 = tail call i32 asm "", "=r,0,~{dirflag},~{fpsr},~{flags}"(i32 range(i32 -1, 2) %18) #10, !srcloc !42
  %20 = and i32 %19, %15
  %21 = or i32 %20, %17
  %22 = getelementptr inbounds nuw i8, ptr %.01036, i64 4
  store i32 %21, ptr %.01036, align 4, !tbaa !21
  %23 = lshr i32 %.0.copyload.i, 20
  %24 = shl i32 %.0.copyload.i14, 12
  %25 = and i32 %24, 1044480
  %26 = or disjoint i32 %25, %23
  %27 = sub nuw nsw i32 8904705, %26
  %28 = sub nsw i32 524288, %26
  %.neg.i.i.i.i16 = ashr i32 %28, 31
  %29 = tail call i32 asm "", "=r,0,~{dirflag},~{fpsr},~{flags}"(i32 range(i32 -1, 1) %.neg.i.i.i.i16) #10, !srcloc !42
  %30 = and i32 %29, %27
  %31 = xor i32 %.neg.i.i.i.i16, -1
  %32 = tail call i32 asm "", "=r,0,~{dirflag},~{fpsr},~{flags}"(i32 range(i32 -1, 2) %31) #10, !srcloc !42
  %33 = and i32 %32, %28
  %34 = or i32 %33, %30
  %35 = getelementptr inbounds nuw i8, ptr %.01036, i64 8
  store i32 %34, ptr %22, align 4, !tbaa !21
  %36 = lshr i32 %.0.copyload.i14, 8
  %37 = and i32 %36, 1048575
  %38 = sub nuw nsw i32 8904705, %37
  %39 = sub nsw i32 524288, %37
  %.neg.i.i.i.i17 = ashr i32 %39, 31
  %40 = tail call i32 asm "", "=r,0,~{dirflag},~{fpsr},~{flags}"(i32 range(i32 -1, 1) %.neg.i.i.i.i17) #10, !srcloc !42
  %41 = and i32 %40, %38
  %42 = xor i32 %.neg.i.i.i.i17, -1
  %43 = tail call i32 asm "", "=r,0,~{dirflag},~{fpsr},~{flags}"(i32 range(i32 -1, 2) %42) #10, !srcloc !42
  %44 = and i32 %43, %39
  %45 = or i32 %44, %41
  %46 = getelementptr inbounds nuw i8, ptr %.01036, i64 12
  store i32 %45, ptr %35, align 4, !tbaa !21
  %47 = zext i16 %.0.copyload.i15 to i32
  %48 = tail call i32 @llvm.fshl.i32(i32 %47, i32 %.0.copyload.i14, i32 4)
  %49 = sub nuw nsw i32 8904705, %48
  %50 = sub nsw i32 524288, %48
  %.neg.i.i.i.i18 = ashr i32 %50, 31
  %51 = tail call i32 asm "", "=r,0,~{dirflag},~{fpsr},~{flags}"(i32 range(i32 -1, 1) %.neg.i.i.i.i18) #10, !srcloc !42
  %52 = and i32 %51, %49
  %53 = xor i32 %.neg.i.i.i.i18, -1
  %54 = tail call i32 asm "", "=r,0,~{dirflag},~{fpsr},~{flags}"(i32 range(i32 -1, 2) %53) #10, !srcloc !42
  %55 = and i32 %54, %50
  %56 = or i32 %55, %52
  %57 = getelementptr inbounds nuw i8, ptr %.01036, i64 16
  store i32 %56, ptr %46, align 4, !tbaa !21
  %58 = add nuw nsw i32 %.01235, 1
  %exitcond.not = icmp eq i32 %58, 64
  br i1 %exitcond.not, label %59, label %4, !llvm.loop !79

59:                                               ; preds = %4, %7
  %.013 = phi i32 [ 1, %7 ], [ 0, %4 ]
  ret i32 %.013
}